; Function Attrs: nounwind uwtable
define i32 @Java_com_sun_media_sound_PortMixer_nControlGetIntValue(ptr nocapture noundef readnone %0, ptr nocapture noundef readnone %1, i64 noundef %2) local_unnamed_addr #0 {
  %.not = icmp eq i64 %2, 0
  br i1 %.not, label %7, label %4

4:                                                ; preds = %3
  %5 = inttoptr i64 %2 to ptr
  %6 = tail call i32 @PORT_GetIntValue(ptr noundef nonnull %5) #3
  br label %7

7:                                                ; preds = %4, %3
  %.0 = phi i32 [ %6, %4 ], [ 0, %3 ]
  ret i32 %.0
}